target datalayout = "e-m:e-p270:32:32-p271:32:32-p272:64:64-i64:64-i128:128-f80:128-n8:16:32:64-S128"
target triple = "x86_64-pc-linux-gnu"

@alsa_snd_pcm_hw_params_sizeof = internal global ptr null, align 8
@alsa_snd_pcm_hw_params_any = internal global ptr null, align 8
@alsa_snd_pcm_hw_params_test_format = internal global ptr null, align 8

; Function Attrs: nounwind uwtable
define internal i64 @GetAvailableFormats(ptr noundef %0) #0 {
  %2 = alloca ptr, align 8
  %3 = alloca i64, align 8
  %4 = alloca ptr, align 8
  %5 = alloca i64, align 8
  store ptr %0, ptr %2, align 8, !tbaa !102
  call void @llvm.lifetime.start.p0(i64 8, ptr %3) #17
  store i64 0, ptr %3, align 8, !tbaa !37
  call void @llvm.lifetime.start.p0(i64 8, ptr %4) #17
  br label %6

6:                                                ; preds = %1
  call void @llvm.lifetime.start.p0(i64 8, ptr %5) #17
  %7 = load ptr, ptr @alsa_snd_pcm_hw_params_sizeof, align 8, !tbaa !32
  %8 = call i64 %7()
  store i64 %8, ptr %5, align 8, !tbaa !37
  %9 = load i64, ptr %5, align 8, !tbaa !37
  %10 = alloca i8, i64 %9, align 16
  store ptr %10, ptr %4, align 8, !tbaa !157
  %11 = load ptr, ptr %4, align 8, !tbaa !157
  %12 = load i64, ptr %5, align 8, !tbaa !37
  call void @llvm.memset.p0.i64(ptr align 1 %11, i8 0, i64 %12, i1 false)
  call void @llvm.lifetime.end.p0(i64 8, ptr %5) #17
  br label %13

13:                                               ; preds = %6
  br label %14

14:                                               ; preds = %13
  %15 = load ptr, ptr @alsa_snd_pcm_hw_params_any, align 8, !tbaa !32
  %16 = load ptr, ptr %2, align 8, !tbaa !102
  %17 = load ptr, ptr %4, align 8, !tbaa !157
  %18 = call i32 %15(ptr noundef %16, ptr noundef %17)
  %19 = load ptr, ptr @alsa_snd_pcm_hw_params_test_format, align 8, !tbaa !32
  %20 = load ptr, ptr %2, align 8, !tbaa !102
  %21 = load ptr, ptr %4, align 8, !tbaa !157
  %22 = call i32 %19(ptr noundef %20, ptr noundef %21, i32 noundef 14)
  %23 = icmp sge i32 %22, 0
  br i1 %23, label %24, label %27

24:                                               ; preds = %14
  %25 = load i64, ptr %3, align 8, !tbaa !37
  %26 = or i64 %25, 1
  store i64 %26, ptr %3, align 8, !tbaa !37
  br label %27

27:                                               ; preds = %24, %14
  %28 = load ptr, ptr @alsa_snd_pcm_hw_params_test_format, align 8, !tbaa !32
  %29 = load ptr, ptr %2, align 8, !tbaa !102
  %30 = load ptr, ptr %4, align 8, !tbaa !157
  %31 = call i32 %28(ptr noundef %29, ptr noundef %30, i32 noundef 10)
  %32 = icmp sge i32 %31, 0
  br i1 %32, label %33, label %36

33:                                               ; preds = %27
  %34 = load i64, ptr %3, align 8, !tbaa !37
  %35 = or i64 %34, 2
  store i64 %35, ptr %3, align 8, !tbaa !37
  br label %36

36:                                               ; preds = %33, %27
  %37 = load ptr, ptr @alsa_snd_pcm_hw_params_test_format, align 8, !tbaa !32
  %38 = load ptr, ptr %2, align 8, !tbaa !102
  %39 = load ptr, ptr %4, align 8, !tbaa !157
  %40 = call i32 %37(ptr noundef %38, ptr noundef %39, i32 noundef 32)
  %41 = icmp sge i32 %40, 0
  br i1 %41, label %42, label %45

42:                                               ; preds = %36
  %43 = load i64, ptr %3, align 8, !tbaa !37
  %44 = or i64 %43, 4
  store i64 %44, ptr %3, align 8, !tbaa !37
  br label %45

45:                                               ; preds = %42, %36
  %46 = load ptr, ptr @alsa_snd_pcm_hw_params_test_format, align 8, !tbaa !32
  %47 = load ptr, ptr %2, align 8, !tbaa !102
  %48 = load ptr, ptr %4, align 8, !tbaa !157
  %49 = call i32 %46(ptr noundef %47, ptr noundef %48, i32 noundef 2)
  %50 = icmp sge i32 %49, 0
  br i1 %50, label %51, label %54

51:                                               ; preds = %45
  %52 = load i64, ptr %3, align 8, !tbaa !37
  %53 = or i64 %52, 8
  store i64 %53, ptr %3, align 8, !tbaa !37
  br label %54

54:                                               ; preds = %51, %45
  %55 = load ptr, ptr @alsa_snd_pcm_hw_params_test_format, align 8, !tbaa !32
  %56 = load ptr, ptr %2, align 8, !tbaa !102
  %57 = load ptr, ptr %4, align 8, !tbaa !157
  %58 = call i32 %55(ptr noundef %56, ptr noundef %57, i32 noundef 1)
  %59 = icmp sge i32 %58, 0
  br i1 %59, label %60, label %63

60:                                               ; preds = %54
  %61 = load i64, ptr %3, align 8, !tbaa !37
  %62 = or i64 %61, 32
  store i64 %62, ptr %3, align 8, !tbaa !37
  br label %63

63:                                               ; preds = %60, %54
  %64 = load ptr, ptr @alsa_snd_pcm_hw_params_test_format, align 8, !tbaa !32
  %65 = load ptr, ptr %2, align 8, !tbaa !102
  %66 = load ptr, ptr %4, align 8, !tbaa !157
  %67 = call i32 %64(ptr noundef %65, ptr noundef %66, i32 noundef 0)
  %68 = icmp sge i32 %67, 0
  br i1 %68, label %69, label %72

69:                                               ; preds = %63
  %70 = load i64, ptr %3, align 8, !tbaa !37
  %71 = or i64 %70, 16
  store i64 %71, ptr %3, align 8, !tbaa !37
  br label %72

72:                                               ; preds = %69, %63
  %73 = load i64, ptr %3, align 8, !tbaa !37
  call void @llvm.lifetime.end.p0(i64 8, ptr %4) #17
  call void @llvm.lifetime.end.p0(i64 8, ptr %3) #17
  ret i64 %73
}