; Function Attrs: nounwind uwtable
define internal fastcc range(i64 0, 64) i64 @GetAvailableFormats(ptr noundef %0) unnamed_addr #2 {
  %2 = tail call i64 @snd_pcm_hw_params_sizeof() #25, !callees !170
  %3 = alloca i8, i64 %2, align 16
  call void @llvm.memset.p0.i64(ptr nonnull align 16 %3, i8 0, i64 %2, i1 false)
  %4 = call i32 @snd_pcm_hw_params_any(ptr noundef %0, ptr noundef nonnull %3) #25, !callees !171
  %5 = call i32 @snd_pcm_hw_params_test_format(ptr noundef %0, ptr noundef nonnull %3, i32 noundef 14) #25, !callees !186
  %6 = icmp sgt i32 %5, -1
  %spec.select = zext i1 %6 to i64
  %7 = call i32 @snd_pcm_hw_params_test_format(ptr noundef %0, ptr noundef nonnull %3, i32 noundef 10) #25, !callees !186
  %8 = or disjoint i64 %spec.select, 2
  %9 = icmp slt i32 %7, 0
  %.1 = select i1 %9, i64 %spec.select, i64 %8
  %10 = call i32 @snd_pcm_hw_params_test_format(ptr noundef %0, ptr noundef nonnull %3, i32 noundef 32) #25, !callees !186
  %11 = or disjoint i64 %.1, 4
  %12 = icmp slt i32 %10, 0
  %.2 = select i1 %12, i64 %.1, i64 %11
  %13 = call i32 @snd_pcm_hw_params_test_format(ptr noundef %0, ptr noundef nonnull %3, i32 noundef 2) #25, !callees !186
  %14 = or disjoint i64 %.2, 8
  %15 = icmp slt i32 %13, 0
  %.3 = select i1 %15, i64 %.2, i64 %14
  %16 = call i32 @snd_pcm_hw_params_test_format(ptr noundef %0, ptr noundef nonnull %3, i32 noundef 1) #25, !callees !186
  %17 = or i64 %.3, 32
  %18 = icmp slt i32 %16, 0
  %.4 = select i1 %18, i64 %.3, i64 %17
  %19 = call i32 @snd_pcm_hw_params_test_format(ptr noundef %0, ptr noundef nonnull %3, i32 noundef 0) #25, !callees !186
  %20 = or i64 %.4, 16
  %21 = icmp slt i32 %19, 0
  %.5 = select i1 %21, i64 %.4, i64 %20
  ret i64 %.5
}